(dp0
I1
(dp1
S'name'
p2
(dp3
I2
S'Amsterdam'
p4
sssI3
(dp5
g2
(dp6
I4
S'Brussels'
p7
sssI5
(dp8
g2
(dp9
I6
S'Paris'
p10
sssI7
(dp11
g2
(dp12
I8
S'Luxembourg'
p13
sssI9
(dp14
g2
(dp15
I10
S'Berlin'
p16
sssI11
(dp17
g2
(dp18
I12
S'Praque'
p19
sssI13
(dp20
g2
(dp21
I14
S'Vienna'
p22
sssI15
(dp23
g2
(dp24
I16
S'Zurich'
p25
sssI17
(dp26
g2
(dp27
I18
S'Milan'
p28
sssI19
(dp29
g2
(dp30
I20
S'London'
p31
sssI21
(dp32
g2
(dp33
I22
S'Copenhagen'
p34
sss.(dp0
I75
(dp1
S'distance'
p2
(dp3
I76
S'1.0'
p4
ssS'fromto'
p5
(I19
I21
tp6
ssI77
(dp7
g2
(dp8
I78
g4
ssg5
(I21
I1
tp9
ssI79
(dp10
g2
(dp11
I80
g4
ssg5
(I1
I19
tp12
ssI81
(dp13
g2
(dp14
I82
g4
ssg5
(I3
I1
tp15
ssI83
(dp16
g2
(dp17
I84
g4
ssg5
(I3
I19
tp18
ssI85
(dp19
g2
(dp20
I86
g4
ssg5
(I3
I5
tp21
ssI87
(dp22
g2
(dp23
I88
g4
ssg5
(I3
I17
tp24
ssI89
(dp25
g2
(dp26
I90
g4
ssg5
(I3
I7
tp27
ssI91
(dp28
g2
(dp29
I92
g4
ssg5
(I1
I9
tp30
ssI93
(dp31
g2
(dp32
I94
g4
ssg5
(I21
I9
tp33
ssI95
(dp34
g2
(dp35
I96
g4
ssg5
(I9
I13
tp36
ssI97
(dp37
g2
(dp38
I98
g4
ssg5
(I11
I15
tp39
ssI99
(dp40
g2
(dp41
I100
g4
ssg5
(I15
I13
tp42
ssI101
(dp43
g2
(dp44
I102
g4
ssg5
(I13
I17
tp45
ssI103
(dp46
g2
(dp47
I104
g4
ssg5
(I7
I15
tp48
ssI105
(dp49
g2
(dp50
I106
g4
ssg5
(I15
I17
tp51
ssI107
(dp52
g2
(dp53
I108
g4
ssg5
(I19
I5
tp54
ssI109
(dp55
g2
(dp56
I110
g4
ssg5
(I9
I5
tp57
ssI111
(dp58
g2
(dp59
I112
g4
ssg5
(I5
I7
tp60
ssI113
(dp61
g2
(dp62
I114
g4
ssg5
(I7
I11
tp63
ssI115
(dp64
g2
(dp65
I116
g4
ssg5
(I9
I11
tp66
ssI117
(dp67
g2
(dp68
I118
g4
ssg5
(I11
I13
tp69
ssI119
(dp70
g2
(dp71
I120
g4
ssg5
(I21
I11
tp72
ssI121
(dp73
g2
(dp74
I122
g4
ssg5
(I1
I7
tp75
ssI123
(dp76
g2
(dp77
I124
g4
ssg5
(I5
I15
tp78
ssI125
(dp79
g2
(dp80
I126
g4
ssg5
(I5
I17
tp81
ss.(dp0
S'Zurich'
p1
(dp2
S'Praque'
p3
F1.0
sS'Paris'
p4
F1.0
sS'Milan'
p5
F1.0
sS'Luxembourg'
p6
F1.0
sS'Vienna'
p7
F1.0
ssg3
(dp8
S'Copenhagen'
p9
F1.0
sg1
F1.0
sS'Berlin'
p10
F1.0
sg6
F1.0
sg7
F1.0
ssg5
(dp11
g4
F1.0
sg1
F1.0
sS'Brussels'
p12
F1.0
sg7
F1.0
ssg6
(dp13
g3
F1.0
sS'Amsterdam'
p14
F1.0
sg12
F1.0
sg4
F1.0
sg1
F1.0
ssg4
(dp15
g1
F1.0
sg5
F1.0
sg6
F1.0
sg10
F1.0
sS'London'
p16
F1.0
sg12
F1.0
ssg10
(dp17
g3
F1.0
sg14
F1.0
sg9
F1.0
sg4
F1.0
sg7
F1.0
ssg16
(dp18
g4
F1.0
sg14
F1.0
sg9
F1.0
sg12
F1.0
ssg14
(dp19
g9
F1.0
sg12
F1.0
sg16
F1.0
sg10
F1.0
sg6
F1.0
ssg9
(dp20
g3
F1.0
sg14
F1.0
sg10
F1.0
sg16
F1.0
ssg12
(dp21
g4
F1.0
sg14
F1.0
sg5
F1.0
sg16
F1.0
sg6
F1.0
ssg7
(dp22
g3
F1.0
sg10
F1.0
sg5
F1.0
sg1
F1.0
ss.(dp0
I1
(lp1
F313.0
aF98.0
aF343.0
aF128.0
asI3
(lp2
F202.0
aF167.0
aF232.0
aF197.0
asI5
(lp3
F94.0
aF273.0
aF124.0
aF303.0
asI7
(lp4
F305.0
aF264.0
aF335.0
aF294.0
asI9
(lp5
F604.0
aF170.0
aF634.0
aF200.0
asI11
(lp6
F551.0
aF294.0
aF581.0
aF324.0
asI13
(lp7
F629.0
aF407.0
aF659.0
aF437.0
asI15
(lp8
F345.0
aF378.0
aF375.0
aF408.0
asI17
(lp9
F237.0
aF454.0
aF267.0
aF484.0
asI19
(lp10
F65.0
aF79.0
aF95.0
aF109.0
asI21
(lp11
F544.0
aF33.0
aF574.0
aF63.0
as.(dp0
S'Zurich'
p1
(dp2
S'Praque'
p3
I2
sS'Paris'
p4
I2
sS'Milan'
p5
I2
sS'Luxembourg'
p6
I2
sS'Vienna'
p7
I2
ssg4
(dp8
g1
I2
sg5
I2
sg6
I2
sS'Berlin'
p9
I2
sS'London'
p10
I2
sS'Brussels'
p11
I2
ssg9
(dp12
g4
I2
sS'Amsterdam'
p13
I2
sS'Copenhagen'
p14
I2
sg3
I2
sg7
I2
ssg6
(dp15
g4
I2
sg3
I2
sg13
I2
sg11
I2
sg1
I2
ssg3
(dp16
g9
I2
sg7
I2
sg14
I2
sg6
I2
sg1
I2
ssg5
(dp17
g1
I2
sg4
I2
sg11
I2
sg7
I2
ssg10
(dp18
g4
I2
sg13
I2
sg14
I2
sg11
I2
ssg13
(dp19
g14
I2
sg11
I2
sg10
I2
sg9
I2
sg6
I2
ssg14
(dp20
g3
I2
sg13
I2
sg9
I2
sg10
I2
ssg11
(dp21
g4
I2
sg13
I2
sg5
I2
sg10
I2
sg6
I2
ssg7
(dp22
g3
I2
sg9
I2
sg5
I2
sg1
I2
ss.(dp0
S'Zurich'
p1
(dp2
S'Praque'
p3
I4
sS'Paris'
p4
I4
sS'Milan'
p5
I4
sS'Luxembourg'
p6
I4
sS'Vienna'
p7
I4
ssg4
(dp8
g1
I4
sg5
I4
sg6
I4
sS'Berlin'
p9
I4
sS'London'
p10
I4
sS'Brussels'
p11
I4
ssg9
(dp12
g4
I4
sS'Amsterdam'
p13
I4
sS'Copenhagen'
p14
I4
sg3
I4
sg7
I4
ssg6
(dp15
g4
I4
sg3
I4
sg13
I4
sg11
I4
sg1
I4
ssg3
(dp16
g9
I4
sg7
I4
sg14
I4
sg6
I4
sg1
I4
ssg5
(dp17
g1
I4
sg4
I4
sg11
I4
sg7
I4
ssg10
(dp18
g4
I4
sg13
I4
sg14
I4
sg11
I4
ssg13
(dp19
g14
I4
sg11
I4
sg10
I4
sg9
I4
sg6
I4
ssg14
(dp20
g3
I4
sg13
I4
sg9
I4
sg10
I4
ssg11
(dp21
g4
I4
sg13
I4
sg5
I4
sg10
I4
sg6
I4
ssg7
(dp22
g3
I4
sg9
I4
sg5
I4
sg1
I4
ss.(dp0
S'Zurich'
p1
(dp2
S'Praque'
p3
I1
sS'Paris'
p4
I1
sS'Milan'
p5
I1
sS'Luxembourg'
p6
I1
sS'Vienna'
p7
I1
ssg4
(dp8
g1
I1
sg5
I1
sg6
I1
sS'Berlin'
p9
I1
sS'London'
p10
I1
sS'Brussels'
p11
I1
ssg9
(dp12
g4
I1
sS'Amsterdam'
p13
I1
sS'Copenhagen'
p14
I1
sg3
I1
sg7
I1
ssg6
(dp15
g4
I1
sg3
I1
sg13
I1
sg11
I1
sg1
I1
ssg3
(dp16
g9
I1
sg7
I1
sg14
I1
sg6
I1
sg1
I1
ssg5
(dp17
g1
I1
sg4
I1
sg11
I1
sg7
I1
ssg10
(dp18
g4
I1
sg13
I1
sg14
I1
sg11
I1
ssg13
(dp19
g14
I1
sg11
I1
sg10
I1
sg9
I1
sg6
I1
ssg14
(dp20
g3
I1
sg13
I1
sg9
I1
sg10
I1
ssg11
(dp21
g4
I1
sg13
I1
sg5
I1
sg10
I1
sg6
I1
ssg7
(dp22
g3
I1
sg9
I1
sg5
I1
sg1
I1
ss.